; Function Attrs: mustprogress nounwind uwtable
define dso_local noundef zeroext i1 @_ZN4llvm17convertWideToUTF8ERKNSt7__cxx1112basic_stringIwSt11char_traitsIwESaIwEEERNS1_IcS2_IcESaIcEEE(ptr noundef nonnull align 8 dereferenceable(32) %0, ptr noundef nonnull align 8 dereferenceable(32) %1) local_unnamed_addr #0 {
  %3 = alloca ptr, align 8
  %4 = alloca ptr, align 8
  %5 = tail call noundef ptr @_ZNKSt7__cxx1112basic_stringIwSt11char_traitsIwESaIwEE4dataEv(ptr noundef nonnull align 8 dereferenceable(32) %0) #13
  store ptr %5, ptr %3, align 8
  %6 = tail call noundef ptr @_ZNKSt7__cxx1112basic_stringIwSt11char_traitsIwESaIwEE4dataEv(ptr noundef nonnull align 8 dereferenceable(32) %0) #13
  %7 = tail call noundef i64 @_ZNKSt7__cxx1112basic_stringIwSt11char_traitsIwESaIwEE4sizeEv(ptr noundef nonnull align 8 dereferenceable(32) %0) #13
  %8 = getelementptr inbounds i32, ptr %6, i64 %7
  %9 = tail call noundef i64 @_ZNKSt7__cxx1112basic_stringIwSt11char_traitsIwESaIwEE4sizeEv(ptr noundef nonnull align 8 dereferenceable(32) %0) #13
  %10 = shl i64 %9, 2
  tail call void @_ZNSt7__cxx1112basic_stringIcSt11char_traitsIcESaIcEE6resizeEm(ptr noundef nonnull align 8 dereferenceable(32) %1, i64 noundef %10) #13
  %11 = tail call noundef nonnull align 1 dereferenceable(1) ptr @_ZNSt7__cxx1112basic_stringIcSt11char_traitsIcESaIcEEixEm(ptr noundef nonnull align 8 dereferenceable(32) %1, i64 noundef 0) #13
  store ptr %11, ptr %4, align 8
  %12 = tail call noundef nonnull align 1 dereferenceable(1) ptr @_ZNSt7__cxx1112basic_stringIcSt11char_traitsIcESaIcEEixEm(ptr noundef nonnull align 8 dereferenceable(32) %1, i64 noundef 0) #13
  %13 = tail call noundef i64 @_ZNKSt7__cxx1112basic_stringIcSt11char_traitsIcESaIcEE4sizeEv(ptr noundef nonnull align 8 dereferenceable(32) %1) #13
  %14 = getelementptr inbounds i8, ptr %12, i64 %13
  %15 = call noundef i32 @_ZN4llvm18ConvertUTF32toUTF8EPPKjS1_PPhS3_NS_15ConversionFlagsE(ptr noundef nonnull %3, ptr noundef %8, ptr noundef nonnull %4, ptr noundef nonnull %14, i32 noundef 0) #13
  %16 = icmp eq i32 %15, 0
  br i1 %16, label %17, label %23

17:                                               ; preds = %2
  %18 = load ptr, ptr %4, align 8
  %19 = call noundef nonnull align 1 dereferenceable(1) ptr @_ZNSt7__cxx1112basic_stringIcSt11char_traitsIcESaIcEEixEm(ptr noundef nonnull align 8 dereferenceable(32) %1, i64 noundef 0) #13
  %20 = ptrtoint ptr %18 to i64
  %21 = ptrtoint ptr %19 to i64
  %22 = sub i64 %20, %21
  call void @_ZNSt7__cxx1112basic_stringIcSt11char_traitsIcESaIcEE6resizeEm(ptr noundef nonnull align 8 dereferenceable(32) %1, i64 noundef %22) #13
  br label %24

23:                                               ; preds = %2
  call void @_ZNSt7__cxx1112basic_stringIcSt11char_traitsIcESaIcEE5clearEv(ptr noundef nonnull align 8 dereferenceable(32) %1) #13
  br label %24

24:                                               ; preds = %23, %17
  ret i1 %16
}